; Function Attrs: mustprogress uwtable
define void @_ZN32pxrInternal_v0_24__pxrReserved__10TsKeyFrame19SetLeftTangentSlopeENS_7VtValueE(ptr noundef nonnull align 8 dereferenceable(72) %0, ptr noundef %1) local_unnamed_addr #0 align 2 personality ptr @__gxx_personality_v0 {
  %3 = alloca %"class.pxrInternal_v0_24__pxrReserved__::VtValue", align 8
  %4 = tail call noundef zeroext i1 @_ZNK32pxrInternal_v0_24__pxrReserved__10TsKeyFrame23_ValidateTangentSettingEv(ptr noundef nonnull align 8 dereferenceable(72) %0)
  br i1 %4, label %5, label %_ZN32pxrInternal_v0_24__pxrReserved__7VtValueD2Ev.exit

5:                                                ; preds = %2
  %6 = getelementptr inbounds nuw i8, ptr %3, i64 8
  store ptr null, ptr %6, align 8
  call void @_ZN32pxrInternal_v0_24__pxrReserved__7VtValue5_CopyERKS0_RS0_(ptr noundef nonnull align 8 dereferenceable(16) %1, ptr noundef nonnull align 8 dereferenceable(16) %3)
  %7 = load ptr, ptr %0, align 8
  %8 = getelementptr inbounds i8, ptr %7, i64 232
  %9 = load ptr, ptr %8, align 8
  invoke void %9(ptr noundef nonnull align 8 dereferenceable(16) %0, ptr noundef nonnull %3)
          to label %10 unwind label %23

10:                                               ; preds = %5
  %11 = load ptr, ptr %6, align 8
  %12 = ptrtoint ptr %11 to i64
  %.not.i.i = icmp eq ptr %11, null
  %13 = and i64 %12, 3
  %14 = icmp eq i64 %13, 3
  %or.cond.i.i = or i1 %.not.i.i, %14
  br i1 %or.cond.i.i, label %_ZN32pxrInternal_v0_24__pxrReserved__7VtValueD2Ev.exit, label %15

15:                                               ; preds = %10
  %16 = and i64 %12, -8
  %17 = inttoptr i64 %16 to ptr
  %18 = getelementptr inbounds nuw i8, ptr %17, i64 32
  %19 = load ptr, ptr %18, align 8
  invoke void %19(ptr noundef nonnull align 8 dereferenceable(8) %3)
          to label %_ZN32pxrInternal_v0_24__pxrReserved__7VtValueD2Ev.exit unwind label %20

20:                                               ; preds = %15
  %21 = landingpad { ptr, i32 }
          catch ptr null
  %22 = extractvalue { ptr, i32 } %21, 0
  call void @__clang_call_terminate(ptr %22) #19
  unreachable

_ZN32pxrInternal_v0_24__pxrReserved__7VtValueD2Ev.exit: ; preds = %15, %10, %2
  ret void

23:                                               ; preds = %5
  %24 = landingpad { ptr, i32 }
          cleanup
  call void @_ZN32pxrInternal_v0_24__pxrReserved__7VtValueD2Ev(ptr noundef nonnull align 8 dereferenceable(16) %3) #20
  resume { ptr, i32 } %24
}